target datalayout = "e-m:e-p270:32:32-p271:32:32-p272:64:64-i64:64-i128:128-f80:128-n8:16:32:64-S128"
target triple = "x86_64-pc-linux-gnu"

%struct.AVFilterContext = type { ptr, ptr, ptr, ptr, ptr, i32, ptr, ptr, i32, ptr, ptr, i32, i32, ptr, ptr, ptr, ptr, i32, ptr, i32, i32 }
%struct.W3FDIFContext = type { ptr, i32, i32, i32, i32, [4 x i32], [4 x i32], i32, i32, i32, ptr, ptr, ptr, ptr, i32, i32, %struct.W3FDIFDSPContext }
%struct.W3FDIFDSPContext = type { ptr, ptr, ptr, ptr, ptr }
%struct.AVFilterLink = type { ptr, ptr, ptr, ptr, i32, i32, i32, i32, %struct.AVRational, i32, i32, i32, %struct.AVChannelLayout, %struct.AVRational, ptr, i32, %struct.AVFilterFormatsConfig, %struct.AVFilterFormatsConfig }
%struct.AVChannelLayout = type { i32, i32, %union.anon.1, ptr }
%union.anon.1 = type { i64 }
%struct.AVRational = type { i32, i32 }
%struct.AVFilterFormatsConfig = type { ptr, ptr, ptr, ptr, ptr }
%struct.FilterLink = type { %struct.AVFilterLink, ptr, i64, i64, i32, i32, i64, i64, i64, i64, %struct.AVRational, ptr }

; Function Attrs: inlinehint nounwind uwtable
define internal ptr @ff_filter_link(ptr noundef %0) #8 {
  %2 = alloca ptr, align 8
  store ptr %0, ptr %2, align 8, !tbaa !33
  %3 = load ptr, ptr %2, align 8, !tbaa !33
  ret ptr %3
}

; Function Attrs: nounwind uwtable
define internal i32 @config_output(ptr noundef %0) #2 {
  %2 = alloca ptr, align 8
  %3 = alloca ptr, align 8
  %4 = alloca ptr, align 8
  %5 = alloca ptr, align 8
  %6 = alloca ptr, align 8
  %7 = alloca ptr, align 8
  %8 = alloca %struct.AVRational, align 4
  %9 = alloca %struct.AVRational, align 4
  %10 = alloca %struct.AVRational, align 4
  %11 = alloca %struct.AVRational, align 4
  store ptr %0, ptr %2, align 8, !tbaa !33
  call void @llvm.lifetime.start.p0(i64 8, ptr %3) #10
  %12 = load ptr, ptr %2, align 8, !tbaa !33
  %13 = getelementptr inbounds nuw %struct.AVFilterLink, ptr %12, i32 0, i32 0
  %14 = load ptr, ptr %13, align 8, !tbaa !114
  store ptr %14, ptr %3, align 8, !tbaa !4
  call void @llvm.lifetime.start.p0(i64 8, ptr %4) #10
  %15 = load ptr, ptr %3, align 8, !tbaa !4
  %16 = getelementptr inbounds nuw %struct.AVFilterContext, ptr %15, i32 0, i32 4
  %17 = load ptr, ptr %16, align 8, !tbaa !116
  %18 = getelementptr inbounds ptr, ptr %17, i64 0
  %19 = load ptr, ptr %18, align 8, !tbaa !33
  store ptr %19, ptr %4, align 8, !tbaa !33
  call void @llvm.lifetime.start.p0(i64 8, ptr %5) #10
  %20 = load ptr, ptr %4, align 8, !tbaa !33
  %21 = call ptr @ff_filter_link(ptr noundef %20)
  store ptr %21, ptr %5, align 8, !tbaa !117
  call void @llvm.lifetime.start.p0(i64 8, ptr %6) #10
  %22 = load ptr, ptr %2, align 8, !tbaa !33
  %23 = call ptr @ff_filter_link(ptr noundef %22)
  store ptr %23, ptr %6, align 8, !tbaa !117
  call void @llvm.lifetime.start.p0(i64 8, ptr %7) #10
  %24 = load ptr, ptr %3, align 8, !tbaa !4
  %25 = getelementptr inbounds nuw %struct.AVFilterContext, ptr %24, i32 0, i32 9
  %26 = load ptr, ptr %25, align 8, !tbaa !9
  store ptr %26, ptr %7, align 8, !tbaa !22
  %27 = load ptr, ptr %2, align 8, !tbaa !33
  %28 = getelementptr inbounds nuw %struct.AVFilterLink, ptr %27, i32 0, i32 13
  call void @llvm.lifetime.start.p0(i64 8, ptr %8) #10
  %29 = load ptr, ptr %4, align 8, !tbaa !33
  %30 = getelementptr inbounds nuw %struct.AVFilterLink, ptr %29, i32 0, i32 13
  %31 = getelementptr inbounds nuw %struct.AVRational, ptr %9, i32 0, i32 0
  store i32 1, ptr %31, align 4, !tbaa !119
  %32 = getelementptr inbounds nuw %struct.AVRational, ptr %9, i32 0, i32 1
  store i32 2, ptr %32, align 4, !tbaa !120
  %33 = load i64, ptr %30, align 8
  %34 = load i64, ptr %9, align 4
  %35 = call i64 @av_mul_q(i64 %33, i64 %34) #12
  store i64 %35, ptr %8, align 4
  call void @llvm.memcpy.p0.p0.i64(ptr align 8 %28, ptr align 4 %8, i64 8, i1 false), !tbaa.struct !121
  call void @llvm.lifetime.end.p0(i64 8, ptr %8) #10
  %36 = load ptr, ptr %7, align 8, !tbaa !22
  %37 = getelementptr inbounds nuw %struct.W3FDIFContext, ptr %36, i32 0, i32 2
  %38 = load i32, ptr %37, align 4, !tbaa !57
  %39 = icmp ne i32 %38, 0
  br i1 %39, label %40, label %50

40:                                               ; preds = %1
  %41 = load ptr, ptr %6, align 8, !tbaa !117
  %42 = getelementptr inbounds nuw %struct.FilterLink, ptr %41, i32 0, i32 10
  call void @llvm.lifetime.start.p0(i64 8, ptr %10) #10
  %43 = load ptr, ptr %5, align 8, !tbaa !117
  %44 = getelementptr inbounds nuw %struct.FilterLink, ptr %43, i32 0, i32 10
  %45 = getelementptr inbounds nuw %struct.AVRational, ptr %11, i32 0, i32 0
  store i32 2, ptr %45, align 4, !tbaa !119
  %46 = getelementptr inbounds nuw %struct.AVRational, ptr %11, i32 0, i32 1
  store i32 1, ptr %46, align 4, !tbaa !120
  %47 = load i64, ptr %44, align 8
  %48 = load i64, ptr %11, align 4
  %49 = call i64 @av_mul_q(i64 %47, i64 %48) #12
  store i64 %49, ptr %10, align 4
  call void @llvm.memcpy.p0.p0.i64(ptr align 8 %42, ptr align 4 %10, i64 8, i1 false), !tbaa.struct !121
  call void @llvm.lifetime.end.p0(i64 8, ptr %10) #10
  br label %50

50:                                               ; preds = %40, %1
  call void @llvm.lifetime.end.p0(i64 8, ptr %7) #10
  call void @llvm.lifetime.end.p0(i64 8, ptr %6) #10
  call void @llvm.lifetime.end.p0(i64 8, ptr %5) #10
  call void @llvm.lifetime.end.p0(i64 8, ptr %4) #10
  call void @llvm.lifetime.end.p0(i64 8, ptr %3) #10
  ret i32 0
}